target datalayout = "e-m:e-p270:32:32-p271:32:32-p272:64:64-i64:64-i128:128-f80:128-n8:16:32:64-S128"
target triple = "x86_64-pc-linux-gnu"

%"class.pbrt::GUI" = type { float, i8, %"class.std::set", float, %"class.pbrt::Transform", %"class.pbrt::Vector2", i8, i32, i8, float, float, double, double, ptr, ptr }
%"class.std::set" = type { %"class.std::_Rb_tree" }
%"class.std::_Rb_tree" = type { %"struct.std::_Rb_tree<char, char, std::_Identity<char>, std::less<char>>::_Rb_tree_impl" }
%"struct.std::_Rb_tree<char, char, std::_Identity<char>, std::less<char>>::_Rb_tree_impl" = type { [8 x i8], %"struct.std::_Rb_tree_header" }
%"struct.std::_Rb_tree_header" = type { %"struct.std::_Rb_tree_node_base", i64 }
%"struct.std::_Rb_tree_node_base" = type { i32, ptr, ptr, ptr }
%"class.pbrt::Transform" = type { %"class.pbrt::SquareMatrix.0", %"class.pbrt::SquareMatrix.0" }
%"class.pbrt::SquareMatrix.0" = type { [4 x [4 x float]] }
%"class.pbrt::Vector2" = type { %"class.pbrt::Tuple2" }
%"class.pbrt::Tuple2" = type { i32, i32 }
%"class.pbrt::Vector3" = type { %"class.pbrt::Tuple3" }
%"class.pbrt::Tuple3" = type { float, float, float }

; Function Attrs: inlinehint mustprogress nounwind uwtable
define linkonce_odr dso_local noundef float @_ZSt3cosf(float noundef %0) #15 comdat {
  %2 = alloca float, align 4
  store float %0, ptr %2, align 4, !tbaa !9
  %3 = load float, ptr %2, align 4, !tbaa !9
  %4 = call float @cosf(float noundef %3) #22, !tbaa !13
  ret float %4
}

; Function Attrs: inlinehint mustprogress nounwind uwtable
define linkonce_odr dso_local noundef float @_ZSt3sinf(float noundef %0) #15 comdat {
  %2 = alloca float, align 4
  store float %0, ptr %2, align 4, !tbaa !9
  %3 = load float, ptr %2, align 4, !tbaa !9
  %4 = call float @sinf(float noundef %3) #22, !tbaa !13
  ret float %4
}

; Function Attrs: inlinehint mustprogress nounwind uwtable
define linkonce_odr dso_local noundef float @_ZN4pbrt7RadiansEf(float noundef %0) #15 comdat {
  %2 = alloca float, align 4
  store float %0, ptr %2, align 4, !tbaa !9
  %3 = load float, ptr %2, align 4, !tbaa !9
  %4 = fmul float 0x3F91DF46A0000000, %3
  ret float %4
}

; Function Attrs: mustprogress nounwind uwtable
define linkonce_odr dso_local void @_ZN4pbrt6Tuple3INS_7Vector3EfEC2Efff(ptr noundef nonnull align 4 dereferenceable(12) %0, float noundef %1, float noundef %2, float noundef %3) unnamed_addr #3 comdat align 2 {
  %5 = alloca ptr, align 8
  %6 = alloca float, align 4
  %7 = alloca float, align 4
  %8 = alloca float, align 4
  store ptr %0, ptr %5, align 8, !tbaa !214
  store float %1, ptr %6, align 4, !tbaa !9
  store float %2, ptr %7, align 4, !tbaa !9
  store float %3, ptr %8, align 4, !tbaa !9
  %9 = load ptr, ptr %5, align 8
  %10 = getelementptr inbounds nuw %"class.pbrt::Tuple3", ptr %9, i32 0, i32 0
  %11 = load float, ptr %6, align 4, !tbaa !9
  store float %11, ptr %10, align 4, !tbaa !198
  %12 = getelementptr inbounds nuw %"class.pbrt::Tuple3", ptr %9, i32 0, i32 1
  %13 = load float, ptr %7, align 4, !tbaa !9
  store float %13, ptr %12, align 4, !tbaa !200
  %14 = getelementptr inbounds nuw %"class.pbrt::Tuple3", ptr %9, i32 0, i32 2
  %15 = load float, ptr %8, align 4, !tbaa !9
  store float %15, ptr %14, align 4, !tbaa !201
  br label %16

16:                                               ; preds = %4
  br label %17

17:                                               ; preds = %16
  ret void
}

; Function Attrs: inlinehint mustprogress uwtable
define linkonce_odr dso_local void @_ZN4pbrt6RotateEfNS_7Vector3IfEE(ptr dead_on_unwind noalias writable sret(%"class.pbrt::Transform") align 4 %0, float noundef %1, <2 x float> %2, float %3) #7 comdat {
  %5 = alloca %"class.pbrt::Vector3", align 4
  %6 = alloca { <2 x float>, float }, align 4
  %7 = alloca float, align 4
  %8 = alloca float, align 4
  %9 = alloca float, align 4
  %10 = alloca %"class.pbrt::Vector3", align 4
  %11 = alloca { <2 x float>, float }, align 4
  %12 = getelementptr inbounds nuw { <2 x float>, float }, ptr %6, i32 0, i32 0
  store <2 x float> %2, ptr %12, align 4
  %13 = getelementptr inbounds nuw { <2 x float>, float }, ptr %6, i32 0, i32 1
  store float %3, ptr %13, align 4
  call void @llvm.memcpy.p0.p0.i64(ptr align 4 %5, ptr align 4 %6, i64 12, i1 false)
  store float %1, ptr %7, align 4, !tbaa !9
  call void @llvm.lifetime.start.p0(i64 4, ptr %8) #22
  %14 = load float, ptr %7, align 4, !tbaa !9
  %15 = call noundef float @_ZN4pbrt7RadiansEf(float noundef %14)
  %16 = call noundef float @_ZSt3sinf(float noundef %15)
  store float %16, ptr %8, align 4, !tbaa !9
  call void @llvm.lifetime.start.p0(i64 4, ptr %9) #22
  %17 = load float, ptr %7, align 4, !tbaa !9
  %18 = call noundef float @_ZN4pbrt7RadiansEf(float noundef %17)
  %19 = call noundef float @_ZSt3cosf(float noundef %18)
  store float %19, ptr %9, align 4, !tbaa !9
  %20 = load float, ptr %8, align 4, !tbaa !9
  %21 = load float, ptr %9, align 4, !tbaa !9
  call void @llvm.memcpy.p0.p0.i64(ptr align 4 %10, ptr align 4 %5, i64 12, i1 false)
  call void @llvm.memcpy.p0.p0.i64(ptr align 4 %11, ptr align 4 %10, i64 12, i1 false)
  %22 = getelementptr inbounds nuw { <2 x float>, float }, ptr %11, i32 0, i32 0
  %23 = load <2 x float>, ptr %22, align 4
  %24 = getelementptr inbounds nuw { <2 x float>, float }, ptr %11, i32 0, i32 1
  %25 = load float, ptr %24, align 4
  call void @_ZN4pbrt6RotateEffNS_7Vector3IfEE(ptr dead_on_unwind writable sret(%"class.pbrt::Transform") align 4 %0, float noundef %20, float noundef %21, <2 x float> %23, float %25)
  call void @llvm.lifetime.end.p0(i64 4, ptr %9) #22
  call void @llvm.lifetime.end.p0(i64 4, ptr %8) #22
  ret void
}

; Function Attrs: mustprogress uwtable
define linkonce_odr dso_local void @_ZN4pbrt7Vector3IfEC2Efff(ptr noundef nonnull align 4 dereferenceable(12) %0, float noundef %1, float noundef %2, float noundef %3) unnamed_addr #1 comdat align 2 {
  %5 = alloca ptr, align 8
  %6 = alloca float, align 4
  %7 = alloca float, align 4
  %8 = alloca float, align 4
  store ptr %0, ptr %5, align 8, !tbaa !54
  store float %1, ptr %6, align 4, !tbaa !9
  store float %2, ptr %7, align 4, !tbaa !9
  store float %3, ptr %8, align 4, !tbaa !9
  %9 = load ptr, ptr %5, align 8
  %10 = load float, ptr %6, align 4, !tbaa !9
  %11 = load float, ptr %7, align 4, !tbaa !9
  %12 = load float, ptr %8, align 4, !tbaa !9
  call void @_ZN4pbrt6Tuple3INS_7Vector3EfEC2Efff(ptr noundef nonnull align 4 dereferenceable(12) %9, float noundef %10, float noundef %11, float noundef %12)
  ret void
}

; Function Attrs: mustprogress uwtable
define dso_local noundef zeroext i1 @_ZN4pbrt3GUI12processMouseEv(ptr noundef nonnull align 8 dereferenceable(248) %0) #6 align 2 {
  %2 = alloca i1, align 1
  %3 = alloca ptr, align 8
  %4 = alloca i8, align 1
  %5 = alloca double, align 8
  %6 = alloca i32, align 4
  %7 = alloca %"class.pbrt::Transform", align 4
  %8 = alloca %"class.pbrt::Transform", align 4
  %9 = alloca %"class.pbrt::Vector3", align 4
  %10 = alloca { <2 x float>, float }, align 4
  %11 = alloca %"class.pbrt::Transform", align 4
  %12 = alloca %"class.pbrt::Transform", align 4
  %13 = alloca %"class.pbrt::Vector3", align 4
  %14 = alloca { <2 x float>, float }, align 4
  %15 = alloca %"class.pbrt::Transform", align 4
  %16 = alloca %"class.pbrt::Transform", align 4
  %17 = alloca %"class.pbrt::Vector3", align 4
  %18 = alloca { <2 x float>, float }, align 4
  %19 = alloca %"class.pbrt::Transform", align 4
  %20 = alloca %"class.pbrt::Transform", align 4
  %21 = alloca %"class.pbrt::Vector3", align 4
  %22 = alloca { <2 x float>, float }, align 4
  store ptr %0, ptr %3, align 8, !tbaa !15
  %23 = load ptr, ptr %3, align 8
  call void @llvm.lifetime.start.p0(i64 1, ptr %4) #22
  store i8 0, ptr %4, align 1, !tbaa !49
  call void @llvm.lifetime.start.p0(i64 8, ptr %5) #22
  store double 1.000000e+00, ptr %5, align 8, !tbaa !11
  %24 = getelementptr inbounds nuw %"class.pbrt::GUI", ptr %23, i32 0, i32 8
  %25 = load i8, ptr %24, align 4, !tbaa !50, !range !41, !noundef !42
  %26 = trunc i8 %25 to i1
  br i1 %26, label %28, label %27

27:                                               ; preds = %1
  store i1 false, ptr %2, align 1
  store i32 1, ptr %6, align 4
  br label %89

28:                                               ; preds = %1
  %29 = getelementptr inbounds nuw %"class.pbrt::GUI", ptr %23, i32 0, i32 9
  %30 = load float, ptr %29, align 8, !tbaa !51
  %31 = fcmp olt float %30, 0.000000e+00
  br i1 %31, label %32, label %43

32:                                               ; preds = %28
  call void @llvm.lifetime.start.p0(i64 128, ptr %7) #22
  %33 = getelementptr inbounds nuw %"class.pbrt::GUI", ptr %23, i32 0, i32 4
  call void @llvm.lifetime.start.p0(i64 128, ptr %8) #22
  %34 = load double, ptr %5, align 8, !tbaa !11
  %35 = fneg double %34
  %36 = fptrunc double %35 to float
  call void @_ZN4pbrt7Vector3IfEC2Efff(ptr noundef nonnull align 4 dereferenceable(12) %9, float noundef 0.000000e+00, float noundef 1.000000e+00, float noundef 0.000000e+00)
  call void @llvm.memcpy.p0.p0.i64(ptr align 4 %10, ptr align 4 %9, i64 12, i1 false)
  %37 = getelementptr inbounds nuw { <2 x float>, float }, ptr %10, i32 0, i32 0
  %38 = load <2 x float>, ptr %37, align 4
  %39 = getelementptr inbounds nuw { <2 x float>, float }, ptr %10, i32 0, i32 1
  %40 = load float, ptr %39, align 4
  call void @_ZN4pbrt6RotateEfNS_7Vector3IfEE(ptr dead_on_unwind writable sret(%"class.pbrt::Transform") align 4 %8, float noundef %36, <2 x float> %38, float %40)
  call void @_ZNK4pbrt9TransformmlERKS0_(ptr dead_on_unwind writable sret(%"class.pbrt::Transform") align 4 %7, ptr noundef nonnull align 4 dereferenceable(128) %33, ptr noundef nonnull align 4 dereferenceable(128) %8)
  %41 = getelementptr inbounds nuw %"class.pbrt::GUI", ptr %23, i32 0, i32 4
  call void @llvm.memcpy.p0.p0.i64(ptr align 4 %41, ptr align 4 %7, i64 128, i1 false), !tbaa.struct !52
  call void @llvm.lifetime.end.p0(i64 128, ptr %8) #22
  call void @llvm.lifetime.end.p0(i64 128, ptr %7) #22
  store i8 1, ptr %4, align 1, !tbaa !49
  %42 = getelementptr inbounds nuw %"class.pbrt::GUI", ptr %23, i32 0, i32 9
  store float 0.000000e+00, ptr %42, align 8, !tbaa !51
  br label %43

43:                                               ; preds = %32, %28
  %44 = getelementptr inbounds nuw %"class.pbrt::GUI", ptr %23, i32 0, i32 9
  %45 = load float, ptr %44, align 8, !tbaa !51
  %46 = fcmp ogt float %45, 0.000000e+00
  br i1 %46, label %47, label %57

47:                                               ; preds = %43
  call void @llvm.lifetime.start.p0(i64 128, ptr %11) #22
  %48 = getelementptr inbounds nuw %"class.pbrt::GUI", ptr %23, i32 0, i32 4
  call void @llvm.lifetime.start.p0(i64 128, ptr %12) #22
  %49 = load double, ptr %5, align 8, !tbaa !11
  %50 = fptrunc double %49 to float
  call void @_ZN4pbrt7Vector3IfEC2Efff(ptr noundef nonnull align 4 dereferenceable(12) %13, float noundef 0.000000e+00, float noundef 1.000000e+00, float noundef 0.000000e+00)
  call void @llvm.memcpy.p0.p0.i64(ptr align 4 %14, ptr align 4 %13, i64 12, i1 false)
  %51 = getelementptr inbounds nuw { <2 x float>, float }, ptr %14, i32 0, i32 0
  %52 = load <2 x float>, ptr %51, align 4
  %53 = getelementptr inbounds nuw { <2 x float>, float }, ptr %14, i32 0, i32 1
  %54 = load float, ptr %53, align 4
  call void @_ZN4pbrt6RotateEfNS_7Vector3IfEE(ptr dead_on_unwind writable sret(%"class.pbrt::Transform") align 4 %12, float noundef %50, <2 x float> %52, float %54)
  call void @_ZNK4pbrt9TransformmlERKS0_(ptr dead_on_unwind writable sret(%"class.pbrt::Transform") align 4 %11, ptr noundef nonnull align 4 dereferenceable(128) %48, ptr noundef nonnull align 4 dereferenceable(128) %12)
  %55 = getelementptr inbounds nuw %"class.pbrt::GUI", ptr %23, i32 0, i32 4
  call void @llvm.memcpy.p0.p0.i64(ptr align 4 %55, ptr align 4 %11, i64 128, i1 false), !tbaa.struct !52
  call void @llvm.lifetime.end.p0(i64 128, ptr %12) #22
  call void @llvm.lifetime.end.p0(i64 128, ptr %11) #22
  store i8 1, ptr %4, align 1, !tbaa !49
  %56 = getelementptr inbounds nuw %"class.pbrt::GUI", ptr %23, i32 0, i32 9
  store float 0.000000e+00, ptr %56, align 8, !tbaa !51
  br label %57

57:                                               ; preds = %47, %43
  %58 = getelementptr inbounds nuw %"class.pbrt::GUI", ptr %23, i32 0, i32 10
  %59 = load float, ptr %58, align 4, !tbaa !53
  %60 = fcmp ogt float %59, 0.000000e+00
  br i1 %60, label %61, label %72

61:                                               ; preds = %57
  call void @llvm.lifetime.start.p0(i64 128, ptr %15) #22
  %62 = getelementptr inbounds nuw %"class.pbrt::GUI", ptr %23, i32 0, i32 4
  call void @llvm.lifetime.start.p0(i64 128, ptr %16) #22
  %63 = load double, ptr %5, align 8, !tbaa !11
  %64 = fneg double %63
  %65 = fptrunc double %64 to float
  call void @_ZN4pbrt7Vector3IfEC2Efff(ptr noundef nonnull align 4 dereferenceable(12) %17, float noundef 1.000000e+00, float noundef 0.000000e+00, float noundef 0.000000e+00)
  call void @llvm.memcpy.p0.p0.i64(ptr align 4 %18, ptr align 4 %17, i64 12, i1 false)
  %66 = getelementptr inbounds nuw { <2 x float>, float }, ptr %18, i32 0, i32 0
  %67 = load <2 x float>, ptr %66, align 4
  %68 = getelementptr inbounds nuw { <2 x float>, float }, ptr %18, i32 0, i32 1
  %69 = load float, ptr %68, align 4
  call void @_ZN4pbrt6RotateEfNS_7Vector3IfEE(ptr dead_on_unwind writable sret(%"class.pbrt::Transform") align 4 %16, float noundef %65, <2 x float> %67, float %69)
  call void @_ZNK4pbrt9TransformmlERKS0_(ptr dead_on_unwind writable sret(%"class.pbrt::Transform") align 4 %15, ptr noundef nonnull align 4 dereferenceable(128) %62, ptr noundef nonnull align 4 dereferenceable(128) %16)
  %70 = getelementptr inbounds nuw %"class.pbrt::GUI", ptr %23, i32 0, i32 4
  call void @llvm.memcpy.p0.p0.i64(ptr align 4 %70, ptr align 4 %15, i64 128, i1 false), !tbaa.struct !52
  call void @llvm.lifetime.end.p0(i64 128, ptr %16) #22
  call void @llvm.lifetime.end.p0(i64 128, ptr %15) #22
  store i8 1, ptr %4, align 1, !tbaa !49
  %71 = getelementptr inbounds nuw %"class.pbrt::GUI", ptr %23, i32 0, i32 10
  store float 0.000000e+00, ptr %71, align 4, !tbaa !53
  br label %72

72:                                               ; preds = %61, %57
  %73 = getelementptr inbounds nuw %"class.pbrt::GUI", ptr %23, i32 0, i32 10
  %74 = load float, ptr %73, align 4, !tbaa !53
  %75 = fcmp olt float %74, 0.000000e+00
  br i1 %75, label %76, label %86

76:                                               ; preds = %72
  call void @llvm.lifetime.start.p0(i64 128, ptr %19) #22
  %77 = getelementptr inbounds nuw %"class.pbrt::GUI", ptr %23, i32 0, i32 4
  call void @llvm.lifetime.start.p0(i64 128, ptr %20) #22
  %78 = load double, ptr %5, align 8, !tbaa !11
  %79 = fptrunc double %78 to float
  call void @_ZN4pbrt7Vector3IfEC2Efff(ptr noundef nonnull align 4 dereferenceable(12) %21, float noundef 1.000000e+00, float noundef 0.000000e+00, float noundef 0.000000e+00)
  call void @llvm.memcpy.p0.p0.i64(ptr align 4 %22, ptr align 4 %21, i64 12, i1 false)
  %80 = getelementptr inbounds nuw { <2 x float>, float }, ptr %22, i32 0, i32 0
  %81 = load <2 x float>, ptr %80, align 4
  %82 = getelementptr inbounds nuw { <2 x float>, float }, ptr %22, i32 0, i32 1
  %83 = load float, ptr %82, align 4
  call void @_ZN4pbrt6RotateEfNS_7Vector3IfEE(ptr dead_on_unwind writable sret(%"class.pbrt::Transform") align 4 %20, float noundef %79, <2 x float> %81, float %83)
  call void @_ZNK4pbrt9TransformmlERKS0_(ptr dead_on_unwind writable sret(%"class.pbrt::Transform") align 4 %19, ptr noundef nonnull align 4 dereferenceable(128) %77, ptr noundef nonnull align 4 dereferenceable(128) %20)
  %84 = getelementptr inbounds nuw %"class.pbrt::GUI", ptr %23, i32 0, i32 4
  call void @llvm.memcpy.p0.p0.i64(ptr align 4 %84, ptr align 4 %19, i64 128, i1 false), !tbaa.struct !52
  call void @llvm.lifetime.end.p0(i64 128, ptr %20) #22
  call void @llvm.lifetime.end.p0(i64 128, ptr %19) #22
  store i8 1, ptr %4, align 1, !tbaa !49
  %85 = getelementptr inbounds nuw %"class.pbrt::GUI", ptr %23, i32 0, i32 10
  store float 0.000000e+00, ptr %85, align 4, !tbaa !53
  br label %86

86:                                               ; preds = %76, %72
  %87 = load i8, ptr %4, align 1, !tbaa !49, !range !41, !noundef !42
  %88 = trunc i8 %87 to i1
  store i1 %88, ptr %2, align 1
  store i32 1, ptr %6, align 4
  br label %89

89:                                               ; preds = %86, %27
  call void @llvm.lifetime.end.p0(i64 8, ptr %5) #22
  call void @llvm.lifetime.end.p0(i64 1, ptr %4) #22
  %90 = load i1, ptr %2, align 1
  ret i1 %90
}