; Function Attrs: mustprogress uwtable
define dso_local noundef zeroext i1 @_ZN4pbrt3GUI12processMouseEv(ptr noundef nonnull align 8 dereferenceable(248) %0) local_unnamed_addr #5 align 2 {
  %2 = alloca %"class.pbrt::Transform", align 4
  %3 = alloca %"class.pbrt::Transform", align 4
  %4 = alloca %"class.pbrt::Transform", align 4
  %5 = alloca %"class.pbrt::Transform", align 4
  %6 = alloca %"class.pbrt::Transform", align 4
  %7 = alloca %"class.pbrt::Transform", align 4
  %8 = alloca %"class.pbrt::Transform", align 4
  %9 = alloca %"class.pbrt::Transform", align 4
  %10 = getelementptr inbounds nuw i8, ptr %0, i64 204
  %11 = load i8, ptr %10, align 4, !tbaa !47, !range !35, !noundef !36
  %12 = trunc nuw i8 %11 to i1
  br i1 %12, label %13, label %31

13:                                               ; preds = %1
  %14 = getelementptr inbounds nuw i8, ptr %0, i64 208
  %15 = load float, ptr %14, align 8, !tbaa !48
  %16 = fcmp olt float %15, 0.000000e+00
  br i1 %16, label %.thread, label %18

.thread:                                          ; preds = %13
  call void @llvm.lifetime.start.p0(i64 128, ptr nonnull %2) #28
  %17 = getelementptr inbounds nuw i8, ptr %0, i64 60
  call void @llvm.lifetime.start.p0(i64 128, ptr nonnull %3) #28
  call void @_ZN4pbrt6RotateEffNS_7Vector3IfEE(ptr dead_on_unwind nonnull writable sret(%"class.pbrt::Transform") align 4 %3, float noundef 0xBF91DF0B20000000, float noundef 0x3FEFFEC0A0000000, <2 x float> <float 0.000000e+00, float 1.000000e+00>, float 0.000000e+00)
  call void @_ZNK4pbrt9TransformmlERKS0_(ptr dead_on_unwind nonnull writable sret(%"class.pbrt::Transform") align 4 %2, ptr noundef nonnull align 4 dereferenceable(128) %17, ptr noundef nonnull align 4 dereferenceable(128) %3)
  call void @llvm.memcpy.p0.p0.i64(ptr noundef nonnull align 4 dereferenceable(128) %17, ptr noundef nonnull align 4 dereferenceable(128) %2, i64 128, i1 false), !tbaa.struct !49
  call void @llvm.lifetime.end.p0(i64 128, ptr nonnull %3) #28
  call void @llvm.lifetime.end.p0(i64 128, ptr nonnull %2) #28
  br label %.sink.split

18:                                               ; preds = %13
  %19 = fcmp ogt float %15, 0.000000e+00
  br i1 %19, label %20, label %22

20:                                               ; preds = %18
  call void @llvm.lifetime.start.p0(i64 128, ptr nonnull %4) #28
  %21 = getelementptr inbounds nuw i8, ptr %0, i64 60
  call void @llvm.lifetime.start.p0(i64 128, ptr nonnull %5) #28
  call void @_ZN4pbrt6RotateEffNS_7Vector3IfEE(ptr dead_on_unwind nonnull writable sret(%"class.pbrt::Transform") align 4 %5, float noundef 0x3F91DF0B20000000, float noundef 0x3FEFFEC0A0000000, <2 x float> <float 0.000000e+00, float 1.000000e+00>, float 0.000000e+00)
  call void @_ZNK4pbrt9TransformmlERKS0_(ptr dead_on_unwind nonnull writable sret(%"class.pbrt::Transform") align 4 %4, ptr noundef nonnull align 4 dereferenceable(128) %21, ptr noundef nonnull align 4 dereferenceable(128) %5)
  call void @llvm.memcpy.p0.p0.i64(ptr noundef nonnull align 4 dereferenceable(128) %21, ptr noundef nonnull align 4 dereferenceable(128) %4, i64 128, i1 false), !tbaa.struct !49
  call void @llvm.lifetime.end.p0(i64 128, ptr nonnull %5) #28
  call void @llvm.lifetime.end.p0(i64 128, ptr nonnull %4) #28
  br label %.sink.split

.sink.split:                                      ; preds = %20, %.thread
  store float 0.000000e+00, ptr %14, align 8, !tbaa !48
  br label %22

22:                                               ; preds = %.sink.split, %18
  %.1 = phi i1 [ false, %18 ], [ true, %.sink.split ]
  %23 = getelementptr inbounds nuw i8, ptr %0, i64 212
  %24 = load float, ptr %23, align 4, !tbaa !50
  %25 = fcmp ogt float %24, 0.000000e+00
  br i1 %25, label %.thread23, label %27

.thread23:                                        ; preds = %22
  call void @llvm.lifetime.start.p0(i64 128, ptr nonnull %6) #28
  %26 = getelementptr inbounds nuw i8, ptr %0, i64 60
  call void @llvm.lifetime.start.p0(i64 128, ptr nonnull %7) #28
  call void @_ZN4pbrt6RotateEffNS_7Vector3IfEE(ptr dead_on_unwind nonnull writable sret(%"class.pbrt::Transform") align 4 %7, float noundef 0xBF91DF0B20000000, float noundef 0x3FEFFEC0A0000000, <2 x float> <float 1.000000e+00, float 0.000000e+00>, float 0.000000e+00)
  call void @_ZNK4pbrt9TransformmlERKS0_(ptr dead_on_unwind nonnull writable sret(%"class.pbrt::Transform") align 4 %6, ptr noundef nonnull align 4 dereferenceable(128) %26, ptr noundef nonnull align 4 dereferenceable(128) %7)
  call void @llvm.memcpy.p0.p0.i64(ptr noundef nonnull align 4 dereferenceable(128) %26, ptr noundef nonnull align 4 dereferenceable(128) %6, i64 128, i1 false), !tbaa.struct !49
  call void @llvm.lifetime.end.p0(i64 128, ptr nonnull %7) #28
  call void @llvm.lifetime.end.p0(i64 128, ptr nonnull %6) #28
  br label %.sink.split25

27:                                               ; preds = %22
  %28 = fcmp olt float %24, 0.000000e+00
  br i1 %28, label %29, label %31

29:                                               ; preds = %27
  call void @llvm.lifetime.start.p0(i64 128, ptr nonnull %8) #28
  %30 = getelementptr inbounds nuw i8, ptr %0, i64 60
  call void @llvm.lifetime.start.p0(i64 128, ptr nonnull %9) #28
  call void @_ZN4pbrt6RotateEffNS_7Vector3IfEE(ptr dead_on_unwind nonnull writable sret(%"class.pbrt::Transform") align 4 %9, float noundef 0x3F91DF0B20000000, float noundef 0x3FEFFEC0A0000000, <2 x float> <float 1.000000e+00, float 0.000000e+00>, float 0.000000e+00)
  call void @_ZNK4pbrt9TransformmlERKS0_(ptr dead_on_unwind nonnull writable sret(%"class.pbrt::Transform") align 4 %8, ptr noundef nonnull align 4 dereferenceable(128) %30, ptr noundef nonnull align 4 dereferenceable(128) %9)
  call void @llvm.memcpy.p0.p0.i64(ptr noundef nonnull align 4 dereferenceable(128) %30, ptr noundef nonnull align 4 dereferenceable(128) %8, i64 128, i1 false), !tbaa.struct !49
  call void @llvm.lifetime.end.p0(i64 128, ptr nonnull %9) #28
  call void @llvm.lifetime.end.p0(i64 128, ptr nonnull %8) #28
  br label %.sink.split25

.sink.split25:                                    ; preds = %29, %.thread23
  store float 0.000000e+00, ptr %23, align 4, !tbaa !50
  br label %31

31:                                               ; preds = %.sink.split25, %27, %1
  %.0 = phi i1 [ false, %1 ], [ %.1, %27 ], [ true, %.sink.split25 ]
  ret i1 %.0
}